; Function Attrs: mustprogress nofree norecurse nosync nounwind willreturn memory(argmem: readwrite, inaccessiblemem: readwrite) uwtable
define void @_ZNK32pxrInternal_v0_24__pxrReserved__6GfLine16FindClosestPointERKNS_7GfVec3dEPd(ptr dead_on_unwind noalias writable writeonly sret(%"class.pxrInternal_v0_24__pxrReserved__::GfVec3d") align 8 captures(none) initializes((0, 24)) %0, ptr noundef nonnull readonly align 8 captures(none) dereferenceable(48) %1, ptr noundef nonnull readonly align 8 captures(none) dereferenceable(24) %2, ptr noundef writeonly %3) local_unnamed_addr #1 align 2 {
  %.sroa.0.0.copyload.i = load double, ptr %2, align 8, !noalias !4
  %.sroa.4.0..sroa_idx.i = getelementptr inbounds nuw i8, ptr %2, i64 8
  %.sroa.4.0.copyload.i = load double, ptr %.sroa.4.0..sroa_idx.i, align 8, !noalias !4
  %.sroa.6.0..sroa_idx.i = getelementptr inbounds nuw i8, ptr %2, i64 16
  %.sroa.6.0.copyload.i = load double, ptr %.sroa.6.0..sroa_idx.i, align 8, !noalias !4
  %5 = load double, ptr %1, align 8, !noalias !4
  %6 = fsub double %.sroa.0.0.copyload.i, %5
  %7 = getelementptr inbounds nuw i8, ptr %1, i64 8
  %8 = load double, ptr %7, align 8, !noalias !4
  %9 = fsub double %.sroa.4.0.copyload.i, %8
  %10 = getelementptr inbounds nuw i8, ptr %1, i64 16
  %11 = load double, ptr %10, align 8, !noalias !4
  %12 = fsub double %.sroa.6.0.copyload.i, %11
  %13 = getelementptr inbounds nuw i8, ptr %1, i64 24
  %14 = load double, ptr %13, align 8
  %15 = getelementptr inbounds nuw i8, ptr %1, i64 32
  %16 = load double, ptr %15, align 8
  %17 = fmul double %9, %16
  %18 = tail call double @llvm.fmuladd.f64(double %6, double %14, double %17)
  %19 = getelementptr inbounds nuw i8, ptr %1, i64 40
  %20 = load double, ptr %19, align 8
  %21 = tail call noundef double @llvm.fmuladd.f64(double %12, double %20, double %18)
  %.not = icmp eq ptr %3, null
  br i1 %.not, label %23, label %22

22:                                               ; preds = %4
  store double %21, ptr %3, align 8
  %.sroa.0.0.copyload.i.i.pre = load double, ptr %13, align 8, !noalias !7
  %.sroa.4.0.copyload.i.i.pre = load double, ptr %15, align 8, !noalias !7
  %.sroa.6.0.copyload.i.i.pre = load double, ptr %19, align 8, !noalias !7
  %.sroa.0.0.copyload.i2.i.pre = load double, ptr %1, align 8, !noalias !12
  %.sroa.4.0.copyload.i4.i.pre = load double, ptr %7, align 8, !noalias !12
  %.sroa.6.0.copyload.i6.i.pre = load double, ptr %10, align 8, !noalias !12
  br label %23

23:                                               ; preds = %22, %4
  %.sroa.6.0.copyload.i6.i = phi double [ %.sroa.6.0.copyload.i6.i.pre, %22 ], [ %11, %4 ]
  %.sroa.4.0.copyload.i4.i = phi double [ %.sroa.4.0.copyload.i4.i.pre, %22 ], [ %8, %4 ]
  %.sroa.0.0.copyload.i2.i = phi double [ %.sroa.0.0.copyload.i2.i.pre, %22 ], [ %5, %4 ]
  %.sroa.6.0.copyload.i.i = phi double [ %.sroa.6.0.copyload.i.i.pre, %22 ], [ %20, %4 ]
  %.sroa.4.0.copyload.i.i = phi double [ %.sroa.4.0.copyload.i.i.pre, %22 ], [ %16, %4 ]
  %.sroa.0.0.copyload.i.i = phi double [ %.sroa.0.0.copyload.i.i.pre, %22 ], [ %14, %4 ]
  tail call void @llvm.experimental.noalias.scope.decl(metadata !15)
  %24 = fmul double %21, %.sroa.0.0.copyload.i.i
  %25 = fmul double %21, %.sroa.4.0.copyload.i.i
  %26 = fmul double %21, %.sroa.6.0.copyload.i.i
  tail call void @llvm.experimental.noalias.scope.decl(metadata !16)
  %27 = fadd double %24, %.sroa.0.0.copyload.i2.i
  %28 = fadd double %25, %.sroa.4.0.copyload.i4.i
  %29 = fadd double %26, %.sroa.6.0.copyload.i6.i
  store double %27, ptr %0, align 8, !alias.scope !12
  %.sroa.4.0..sroa_idx3.i7.i = getelementptr inbounds nuw i8, ptr %0, i64 8
  store double %28, ptr %.sroa.4.0..sroa_idx3.i7.i, align 8, !alias.scope !12
  %.sroa.6.0..sroa_idx5.i8.i = getelementptr inbounds nuw i8, ptr %0, i64 16
  store double %29, ptr %.sroa.6.0..sroa_idx5.i8.i, align 8, !alias.scope !12
  ret void
}